CCS PCM C Compiler, Version 4.049, 25917               11-¡.¤.-16 11:57

               Filename: LAB07-incDec.lst

               ROM used: 184 words (2%)
                         Largest free fragment is 2048
               RAM used: 19 (5%) at main() level
                         19 (5%) worst case
               Stack:    1 locations

*
0000:  MOVLW  00
0001:  MOVWF  0A
0002:  GOTO   018
0003:  NOP
.................... #include "D:\Work T.Pongsak\Microcontroller\Work\LAB07-incDec\LAB07-incDec.h" 
.................... #include <16F887.h> 
.................... //////// Standard Header file for the PIC16F887 device //////////////// 
.................... #device PIC16F887 
.................... #list 
....................  
.................... #device adc=8 
....................  
.................... #FUSES NOWDT                 	//No Watch Dog Timer 
.................... #FUSES HS                    	//High speed Osc (> 4mhz) 
.................... #FUSES NOPUT                 	//No Power Up Timer 
.................... #FUSES MCLR                  	//Master Clear pin enabled 
.................... #FUSES NOPROTECT             	//Code not protected from reading 
.................... #FUSES NOCPD                 	//No EE protection 
.................... #FUSES NOBROWNOUT            	//No brownout reset 
.................... #FUSES NOIESO                	//Internal External Switch Over mode disabled 
.................... #FUSES NOFCMEN               	//Fail-safe clock monitor disabled 
.................... #FUSES NOLVP                 	//No low voltage prgming, B3(PIC16) or B5(PIC18) used for I/O 
.................... #FUSES NODEBUG               	//No Debug mode for ICD 
.................... #FUSES NOWRT                 	//Program memory not write protected 
.................... #FUSES BORV40                	//Brownout reset at 4.0V 
....................  
.................... #use delay(clock=20000000) 
....................  
....................  
.................... #use delay (clock=20M) 
0004:  MOVLW  2C
0005:  MOVWF  04
0006:  BCF    03.7
0007:  MOVF   00,W
0008:  BTFSC  03.2
0009:  GOTO   017
000A:  MOVLW  06
000B:  MOVWF  78
000C:  CLRF   77
000D:  DECFSZ 77,F
000E:  GOTO   00D
000F:  DECFSZ 78,F
0010:  GOTO   00C
0011:  MOVLW  7B
0012:  MOVWF  77
0013:  DECFSZ 77,F
0014:  GOTO   013
0015:  DECFSZ 00,F
0016:  GOTO   00A
0017:  RETLW  00
.................... #define ISw PIN_B0 
.................... #define DSw PIN_B1 
.................... void main() 
.................... { 
0018:  CLRF   04
0019:  BCF    03.7
001A:  MOVLW  1F
001B:  ANDWF  03,F
001C:  BSF    03.5
001D:  BSF    03.6
001E:  MOVF   09,W
001F:  ANDLW  C0
0020:  MOVWF  09
0021:  BCF    03.6
0022:  BCF    1F.4
0023:  BCF    1F.5
0024:  MOVLW  00
0025:  BSF    03.6
0026:  MOVWF  08
0027:  BCF    03.5
0028:  CLRF   07
0029:  CLRF   08
002A:  CLRF   09
....................    char segment[]={0x3F,0x06,0x5B,0x4F,0x66,0x6D,0x7D,0x07,0x7F,0x6F}; 
*
002E:  MOVLW  3F
002F:  MOVWF  21
0030:  MOVLW  06
0031:  MOVWF  22
0032:  MOVLW  5B
0033:  MOVWF  23
0034:  MOVLW  4F
0035:  MOVWF  24
0036:  MOVLW  66
0037:  MOVWF  25
0038:  MOVLW  6D
0039:  MOVWF  26
003A:  MOVLW  7D
003B:  MOVWF  27
003C:  MOVLW  07
003D:  MOVWF  28
003E:  MOVLW  7F
003F:  MOVWF  29
0040:  MOVLW  6F
0041:  MOVWF  2A
....................    int count=0; 
0042:  CLRF   2B
....................    setup_adc_ports(NO_ANALOGS|VSS_VDD); 
0043:  BSF    03.5
0044:  BSF    03.6
0045:  MOVF   09,W
0046:  ANDLW  C0
0047:  MOVWF  09
0048:  BCF    03.6
0049:  BCF    1F.4
004A:  BCF    1F.5
004B:  MOVLW  00
004C:  BSF    03.6
004D:  MOVWF  08
....................    setup_adc(ADC_OFF); 
004E:  BCF    03.5
004F:  BCF    03.6
0050:  BCF    1F.0
....................    setup_spi(SPI_SS_DISABLED); 
*
002B:  MOVLW  FF
002C:  BCF    03.6
002D:  MOVWF  20
*
0051:  BCF    14.5
0052:  BCF    20.5
0053:  MOVF   20,W
0054:  BSF    03.5
0055:  MOVWF  07
0056:  BCF    03.5
0057:  BSF    20.4
0058:  MOVF   20,W
0059:  BSF    03.5
005A:  MOVWF  07
005B:  BCF    03.5
005C:  BCF    20.3
005D:  MOVF   20,W
005E:  BSF    03.5
005F:  MOVWF  07
0060:  MOVLW  01
0061:  BCF    03.5
0062:  MOVWF  14
0063:  MOVLW  00
0064:  BSF    03.5
0065:  MOVWF  14
....................    setup_timer_0(RTCC_INTERNAL|RTCC_DIV_1); 
0066:  MOVF   01,W
0067:  ANDLW  C7
0068:  IORLW  08
0069:  MOVWF  01
....................    setup_timer_1(T1_DISABLED); 
006A:  BCF    03.5
006B:  CLRF   10
....................    setup_timer_2(T2_DISABLED,0,1); 
006C:  MOVLW  00
006D:  MOVWF  78
006E:  MOVWF  12
006F:  MOVLW  00
0070:  BSF    03.5
0071:  MOVWF  12
....................    setup_comparator(NC_NC_NC_NC);// This device COMP currently not supported by the PICWizard 
0072:  BCF    03.5
0073:  BSF    03.6
0074:  CLRF   07
0075:  CLRF   08
0076:  CLRF   09
.................... //Setup_Oscillator parameter not selected from Intr Oscillotar Config tab 
....................  
....................    // TODO: USER CODE!! 
....................    set_tris_b(0xff); 
0077:  MOVLW  FF
0078:  BSF    03.5
0079:  BCF    03.6
007A:  MOVWF  06
....................    set_tris_d(0x00); 
007B:  MOVLW  00
007C:  MOVWF  08
....................    output_d(segment[0]); 
007D:  CLRF   08
007E:  BCF    03.5
007F:  MOVF   21,W
0080:  MOVWF  08
....................    while(1){ 
....................       if(!input(ISw)){ 
0081:  BSF    03.5
0082:  BSF    06.0
0083:  BCF    03.5
0084:  BTFSC  06.0
0085:  GOTO   08F
....................         delay_ms(50); 
0086:  MOVLW  32
0087:  MOVWF  2C
0088:  CALL   004
....................         count++; 
0089:  INCF   2B,F
....................         if(count==10){ 
008A:  MOVF   2B,W
008B:  SUBLW  0A
008C:  BTFSS  03.2
008D:  GOTO   08F
....................             count=0; 
008E:  CLRF   2B
....................         } 
....................       } 
....................       if(!input(DSw)){ 
008F:  BSF    03.5
0090:  BSF    06.1
0091:  BCF    03.5
0092:  BTFSC  06.1
0093:  GOTO   09E
....................         delay_ms(50); 
0094:  MOVLW  32
0095:  MOVWF  2C
0096:  CALL   004
....................         count--; 
0097:  DECF   2B,F
....................         if(count==-1){ 
0098:  MOVF   2B,W
0099:  SUBLW  FF
009A:  BTFSS  03.2
009B:  GOTO   09E
....................             count=9; 
009C:  MOVLW  09
009D:  MOVWF  2B
....................         } 
....................       } 
....................       output_d(segment[count]); 
009E:  MOVLW  21
009F:  ADDWF  2B,W
00A0:  MOVWF  04
00A1:  BCF    03.7
00A2:  MOVF   00,W
00A3:  MOVWF  2C
00A4:  BSF    03.5
00A5:  CLRF   08
00A6:  BCF    03.5
00A7:  MOVF   2C,W
00A8:  MOVWF  08
....................       while(!input(Isw)); 
00A9:  BSF    03.5
00AA:  BSF    06.0
00AB:  BCF    03.5
00AC:  BTFSS  06.0
00AD:  GOTO   0A9
....................       while(!input(Dsw)); 
00AE:  BSF    03.5
00AF:  BSF    06.1
00B0:  BCF    03.5
00B1:  BTFSS  06.1
00B2:  GOTO   0AE
....................       delay_ms(50); 
00B3:  MOVLW  32
00B4:  MOVWF  2C
00B5:  CALL   004
....................    } 
00B6:  GOTO   081
.................... } 
00B7:  SLEEP

Configuration Fuses:
   Word  1: 20F2   HS NOWDT NOPUT MCLR NOPROTECT NOCPD NOBROWNOUT NOIESO NOFCMEN NOLVP NODEBUG
   Word  2: 3FFF   NOWRT BORV40
