CCS PCM C Compiler, Version 4.049, 25917               29-Ê.¤.-16 10:59

               Filename: LAB10-Stepping.lst

               ROM used: 166 words (2%)
                         Largest free fragment is 2048
               RAM used: 25 (7%) at main() level
                         26 (7%) worst case
               Stack:    1 locations

*
0000:  MOVLW  00
0001:  MOVWF  0A
0002:  GOTO   01A
0003:  NOP
.................... #include "D:\Work T.Pongsak\Microcontroller\Work\LAB10-Stepping\LAB10-Stepping.h" 
.................... #include <16F887.h> 
.................... //////// Standard Header file for the PIC16F887 device //////////////// 
.................... #device PIC16F887 
.................... #list 
....................  
.................... #device adc=8 
....................  
.................... #FUSES NOWDT                 	//No Watch Dog Timer 
.................... #FUSES HS                    	//High speed Osc (> 4mhz) 
.................... #FUSES NOPUT                 	//No Power Up Timer 
.................... #FUSES MCLR                  	//Master Clear pin enabled 
.................... #FUSES NOPROTECT             	//Code not protected from reading 
.................... #FUSES NOCPD                 	//No EE protection 
.................... #FUSES NOBROWNOUT            	//No brownout reset 
.................... #FUSES NOIESO                	//Internal External Switch Over mode disabled 
.................... #FUSES NOFCMEN               	//Fail-safe clock monitor disabled 
.................... #FUSES NOLVP                 	//No low voltage prgming, B3(PIC16) or B5(PIC18) used for I/O 
.................... #FUSES NODEBUG               	//No Debug mode for ICD 
.................... #FUSES NOWRT                 	//Program memory not write protected 
.................... #FUSES BORV40                	//Brownout reset at 4.0V 
....................  
.................... #use delay(clock=20000000) 
0004:  MOVLW  33
0005:  MOVWF  04
0006:  BCF    03.7
0007:  MOVF   00,W
0008:  BTFSC  03.2
0009:  GOTO   017
000A:  MOVLW  06
000B:  MOVWF  78
000C:  CLRF   77
000D:  DECFSZ 77,F
000E:  GOTO   00D
000F:  DECFSZ 78,F
0010:  GOTO   00C
0011:  MOVLW  7B
0012:  MOVWF  77
0013:  DECFSZ 77,F
0014:  GOTO   013
0015:  DECFSZ 00,F
0016:  GOTO   00A
0017:  BCF    0A.3
0018:  BCF    0A.4
0019:  GOTO   0A0 (RETURN)
....................  
....................  
....................  
....................  
.................... void main() 
.................... { 
001A:  CLRF   04
001B:  BCF    03.7
001C:  MOVLW  1F
001D:  ANDWF  03,F
001E:  BSF    03.5
001F:  BSF    03.6
0020:  MOVF   09,W
0021:  ANDLW  C0
0022:  MOVWF  09
0023:  BCF    03.6
0024:  BCF    1F.4
0025:  BCF    1F.5
0026:  MOVLW  00
0027:  BSF    03.6
0028:  MOVWF  08
0029:  BCF    03.5
002A:  CLRF   07
002B:  CLRF   08
002C:  CLRF   09
....................    int full1ph[]={0x01,0x02,0x04,0x08}; 
*
0030:  MOVLW  01
0031:  MOVWF  21
0032:  MOVLW  02
0033:  MOVWF  22
0034:  MOVLW  04
0035:  MOVWF  23
0036:  MOVLW  08
0037:  MOVWF  24
....................    int i; 
....................    int full2ph[]={0x03,0x06,0x0c,0x09}; 
0038:  MOVLW  03
0039:  MOVWF  26
003A:  MOVLW  06
003B:  MOVWF  27
003C:  MOVLW  0C
003D:  MOVWF  28
003E:  MOVLW  09
003F:  MOVWF  29
....................    int halfstep[]={0x01,0x03,0x02,0x06,0x04,0x0c,0x08,0x09}; 
0040:  MOVLW  01
0041:  MOVWF  2A
0042:  MOVLW  03
0043:  MOVWF  2B
0044:  MOVLW  02
0045:  MOVWF  2C
0046:  MOVLW  06
0047:  MOVWF  2D
0048:  MOVLW  04
0049:  MOVWF  2E
004A:  MOVLW  0C
004B:  MOVWF  2F
004C:  MOVLW  08
004D:  MOVWF  30
004E:  MOVLW  09
004F:  MOVWF  31
....................    setup_adc_ports(NO_ANALOGS|VSS_VDD); 
0050:  BSF    03.5
0051:  BSF    03.6
0052:  MOVF   09,W
0053:  ANDLW  C0
0054:  MOVWF  09
0055:  BCF    03.6
0056:  BCF    1F.4
0057:  BCF    1F.5
0058:  MOVLW  00
0059:  BSF    03.6
005A:  MOVWF  08
....................    setup_adc(ADC_OFF); 
005B:  BCF    03.5
005C:  BCF    03.6
005D:  BCF    1F.0
....................    setup_spi(SPI_SS_DISABLED); 
*
002D:  MOVLW  FF
002E:  BCF    03.6
002F:  MOVWF  20
*
005E:  BCF    14.5
005F:  BCF    20.5
0060:  MOVF   20,W
0061:  BSF    03.5
0062:  MOVWF  07
0063:  BCF    03.5
0064:  BSF    20.4
0065:  MOVF   20,W
0066:  BSF    03.5
0067:  MOVWF  07
0068:  BCF    03.5
0069:  BCF    20.3
006A:  MOVF   20,W
006B:  BSF    03.5
006C:  MOVWF  07
006D:  MOVLW  01
006E:  BCF    03.5
006F:  MOVWF  14
0070:  MOVLW  00
0071:  BSF    03.5
0072:  MOVWF  14
....................    setup_timer_0(RTCC_INTERNAL|RTCC_DIV_1); 
0073:  MOVF   01,W
0074:  ANDLW  C7
0075:  IORLW  08
0076:  MOVWF  01
....................    setup_timer_1(T1_DISABLED); 
0077:  BCF    03.5
0078:  CLRF   10
....................    setup_timer_2(T2_DISABLED,0,1); 
0079:  MOVLW  00
007A:  MOVWF  78
007B:  MOVWF  12
007C:  MOVLW  00
007D:  BSF    03.5
007E:  MOVWF  12
....................    setup_comparator(NC_NC_NC_NC);// This device COMP currently not supported by the PICWizard 
007F:  BCF    03.5
0080:  BSF    03.6
0081:  CLRF   07
0082:  CLRF   08
0083:  CLRF   09
.................... //Setup_Oscillator parameter not selected from Intr Oscillotar Config tab 
....................  
....................    // TODO: USER CODE!! 
....................    set_tris_c(0x00); 
0084:  BSF    03.5
0085:  BCF    03.6
0086:  MOVWF  07
0087:  BCF    03.5
0088:  MOVWF  20
....................    while(1){ 
....................       for(i=8;i>0;i--){ 
0089:  MOVLW  08
008A:  MOVWF  25
008B:  MOVF   25,F
008C:  BTFSC  03.2
008D:  GOTO   0A4
....................          output_c(halfstep[i]); 
008E:  MOVLW  2A
008F:  ADDWF  25,W
0090:  MOVWF  04
0091:  BCF    03.7
0092:  MOVF   00,W
0093:  MOVWF  32
0094:  MOVLW  00
0095:  MOVWF  20
0096:  BSF    03.5
0097:  CLRF   07
0098:  BCF    03.5
0099:  MOVF   32,W
009A:  MOVWF  07
....................          delay_ms(300); 
009B:  MOVLW  02
009C:  MOVWF  32
009D:  MOVLW  96
009E:  MOVWF  33
009F:  GOTO   004
00A0:  DECFSZ 32,F
00A1:  GOTO   09D
....................       } 
00A2:  DECF   25,F
00A3:  GOTO   08B
....................    } 
00A4:  GOTO   089
....................  
.................... } 
00A5:  SLEEP

Configuration Fuses:
   Word  1: 20F2   HS NOWDT NOPUT MCLR NOPROTECT NOCPD NOBROWNOUT NOIESO NOFCMEN NOLVP NODEBUG
   Word  2: 3FFF   NOWRT BORV40
